target datalayout = "e-m:e-p270:32:32-p271:32:32-p272:64:64-i64:64-i128:128-f80:128-n8:16:32:64-S128"
target triple = "x86_64-pc-linux-gnu"

%struct.PgStat_LocalState = type { ptr, ptr, ptr, %struct.PgStat_Snapshot }
%struct.PgStat_Snapshot = type { i32, i64, [13 x i8], %struct.PgStat_ArchiverStats, %struct.PgStat_BgWriterStats, %struct.PgStat_CheckpointerStats, %struct.PgStat_IO, [8 x %struct.PgStat_SLRUStats], %struct.PgStat_WalStats, [129 x i8], [129 x ptr], ptr, ptr }
%struct.PgStat_ArchiverStats = type { i64, [41 x i8], i64, i64, [41 x i8], i64, i64 }
%struct.PgStat_BgWriterStats = type { i64, i64, i64, i64 }
%struct.PgStat_CheckpointerStats = type { i64, i64, i64, i64, i64, i64, i64, i64, i64, i64, i64 }
%struct.PgStat_IO = type { i64, [17 x %struct.PgStat_BktypeIO] }
%struct.PgStat_BktypeIO = type { [3 x [5 x [8 x i64]]], [3 x [5 x [8 x i64]]], [3 x [5 x [8 x i64]]] }
%struct.PgStat_SLRUStats = type { i64, i64, i64, i64, i64, i64, i64, i64 }
%struct.PgStat_WalStats = type { i64, i64, i64, i64, i64, i64, i64, i64, i64 }
%struct.PgStat_KindInfo = type { i8, i32, i32, i32, i32, i32, i32, ptr, ptr, ptr, ptr, ptr, ptr, ptr, ptr, ptr, ptr, ptr, ptr }
%struct.PgStat_ShmemControl = type { ptr, i64, i8, %struct.pg_atomic_uint64, %struct.PgStatShared_Archiver, %struct.PgStatShared_BgWriter, %struct.PgStatShared_Checkpointer, %struct.PgStatShared_IO, %struct.PgStatShared_SLRU, %struct.PgStatShared_Wal, [129 x ptr] }
%struct.pg_atomic_uint64 = type { i64 }
%struct.PgStatShared_Archiver = type { %struct.LWLock, i32, %struct.PgStat_ArchiverStats, %struct.PgStat_ArchiverStats }
%struct.LWLock = type { i16, %struct.pg_atomic_uint32, %struct.proclist_head }
%struct.pg_atomic_uint32 = type { i32 }
%struct.proclist_head = type { i32, i32 }
%struct.PgStatShared_BgWriter = type { %struct.LWLock, i32, %struct.PgStat_BgWriterStats, %struct.PgStat_BgWriterStats }
%struct.PgStatShared_Checkpointer = type { %struct.LWLock, i32, %struct.PgStat_CheckpointerStats, %struct.PgStat_CheckpointerStats }
%struct.PgStatShared_IO = type { [17 x %struct.LWLock], %struct.PgStat_IO }
%struct.PgStatShared_SLRU = type { %struct.LWLock, [8 x %struct.PgStat_SLRUStats] }
%struct.PgStatShared_Wal = type { %struct.LWLock, %struct.PgStat_WalStats }

@.str = private unnamed_addr constant [20 x i8] c"Shared Memory Stats\00", align 1
@pgStatLocal = external global %struct.PgStat_LocalState, align 8
@IsUnderPostmaster = external global i8, align 1
@dsh_params = internal constant { i64, i64, ptr, ptr, ptr, i32, [4 x i8] } { i64 16, i64 40, ptr @pgstat_cmp_hash_key, ptr @pgstat_hash_hash_key, ptr @dshash_memcpy, i32 78, [4 x i8] zeroinitializer }, align 8

; Function Attrs: inlinehint nounwind uwtable
define internal void @pg_atomic_init_u64_impl(ptr noundef %0, i64 noundef %1) #3 {
  %3 = alloca ptr, align 8
  %4 = alloca i64, align 8
  store ptr %0, ptr %3, align 8
  store i64 %1, ptr %4, align 8
  %5 = load i64, ptr %4, align 8
  %6 = load ptr, ptr %3, align 8
  %7 = getelementptr inbounds nuw %struct.pg_atomic_uint64, ptr %6, i32 0, i32 0
  store volatile i64 %5, ptr %7, align 8
  ret void
}

; Function Attrs: inlinehint nounwind uwtable
define internal zeroext i1 @pgstat_is_kind_builtin(i32 noundef %0) #3 {
  %2 = alloca i32, align 4
  store i32 %0, ptr %2, align 4
  %3 = load i32, ptr %2, align 4
  %4 = icmp uge i32 %3, 1
  br i1 %4, label %5, label %8

5:                                                ; preds = %1
  %6 = load i32, ptr %2, align 4
  %7 = icmp ule i32 %6, 12
  br label %8

8:                                                ; preds = %5, %1
  %9 = phi i1 [ false, %1 ], [ %7, %5 ]
  ret i1 %9
}

; Function Attrs: inlinehint nounwind uwtable
define internal void @pg_atomic_init_u64(ptr noundef %0, i64 noundef %1) #3 {
  %3 = alloca ptr, align 8
  %4 = alloca i64, align 8
  store ptr %0, ptr %3, align 8
  store i64 %1, ptr %4, align 8
  %5 = load ptr, ptr %3, align 8
  %6 = load i64, ptr %4, align 8
  call void @pg_atomic_init_u64_impl(ptr noundef %5, i64 noundef %6)
  ret void
}

; Function Attrs: nounwind uwtable
define internal i64 @pgstat_dsa_init_size() #0 {
  %1 = alloca i64, align 8
  call void @llvm.lifetime.start.p0(i64 8, ptr %1) #10
  store i64 262144, ptr %1, align 8
  %2 = load i64, ptr %1, align 8
  %3 = add i64 %2, 7
  %4 = and i64 %3, -8
  call void @llvm.lifetime.end.p0(i64 8, ptr %1) #10
  ret i64 %4
}

; Function Attrs: nounwind uwtable
define dso_local i64 @StatsShmemSize() #0 {
  %1 = alloca i64, align 8
  %2 = alloca i32, align 4
  %3 = alloca i32, align 4
  %4 = alloca ptr, align 8
  call void @llvm.lifetime.start.p0(i64 8, ptr %1) #10
  store i64 51504, ptr %1, align 8
  %5 = load i64, ptr %1, align 8
  %6 = call i64 @pgstat_dsa_init_size()
  %7 = call i64 @add_size(i64 noundef %5, i64 noundef %6)
  store i64 %7, ptr %1, align 8
  call void @llvm.lifetime.start.p0(i64 4, ptr %2) #10
  store i32 128, ptr %2, align 4
  br label %8

8:                                                ; preds = %36, %0
  %9 = load i32, ptr %2, align 4
  %10 = icmp ule i32 %9, 256
  br i1 %10, label %12, label %11

11:                                               ; preds = %8
  store i32 2, ptr %3, align 4
  call void @llvm.lifetime.end.p0(i64 4, ptr %2) #10
  br label %39

12:                                               ; preds = %8
  call void @llvm.lifetime.start.p0(i64 8, ptr %4) #10
  %13 = load i32, ptr %2, align 4
  %14 = call ptr @pgstat_get_kind_info(i32 noundef %13)
  store ptr %14, ptr %4, align 8
  %15 = load ptr, ptr %4, align 8
  %16 = icmp ne ptr %15, null
  br i1 %16, label %18, label %17

17:                                               ; preds = %12
  store i32 4, ptr %3, align 4
  br label %33

18:                                               ; preds = %12
  %19 = load ptr, ptr %4, align 8
  %20 = load i8, ptr %19, align 8
  %21 = and i8 %20, 1
  %22 = trunc i8 %21 to i1
  br i1 %22, label %24, label %23

23:                                               ; preds = %18
  store i32 4, ptr %3, align 4
  br label %33

24:                                               ; preds = %18
  %25 = load ptr, ptr %4, align 8
  %26 = getelementptr inbounds nuw %struct.PgStat_KindInfo, ptr %25, i32 0, i32 1
  %27 = load i32, ptr %26, align 4
  %28 = zext i32 %27 to i64
  %29 = add i64 %28, 7
  %30 = and i64 %29, -8
  %31 = load i64, ptr %1, align 8
  %32 = add i64 %31, %30
  store i64 %32, ptr %1, align 8
  store i32 0, ptr %3, align 4
  br label %33

33:                                               ; preds = %24, %23, %17
  call void @llvm.lifetime.end.p0(i64 8, ptr %4) #10
  %34 = load i32, ptr %3, align 4
  switch i32 %34, label %41 [
    i32 0, label %35
    i32 4, label %36
  ]

35:                                               ; preds = %33
  br label %36

36:                                               ; preds = %35, %33
  %37 = load i32, ptr %2, align 4
  %38 = add i32 %37, 1
  store i32 %38, ptr %2, align 4
  br label %8, !llvm.loop !4

39:                                               ; preds = %11
  %40 = load i64, ptr %1, align 8
  store i32 1, ptr %3, align 4
  call void @llvm.lifetime.end.p0(i64 8, ptr %1) #10
  ret i64 %40

41:                                               ; preds = %33
  unreachable
}

; Function Attrs: nounwind uwtable
define dso_local void @StatsShmemInit() #0 {
  %1 = alloca i8, align 1
  %2 = alloca i64, align 8
  %3 = alloca ptr, align 8
  %4 = alloca ptr, align 8
  %5 = alloca ptr, align 8
  %6 = alloca ptr, align 8
  %7 = alloca i32, align 4
  %8 = alloca i32, align 4
  %9 = alloca ptr, align 8
  %10 = alloca ptr, align 8
  %11 = alloca i32, align 4
  call void @llvm.lifetime.start.p0(i64 1, ptr %1) #10
  call void @llvm.lifetime.start.p0(i64 8, ptr %2) #10
  %12 = call i64 @StatsShmemSize()
  store i64 %12, ptr %2, align 8
  %13 = load i64, ptr %2, align 8
  %14 = call ptr @ShmemInitStruct(ptr noundef @.str, i64 noundef %13, ptr noundef %1)
  store ptr %14, ptr @pgStatLocal, align 8
  %15 = load i8, ptr @IsUnderPostmaster, align 1, !range !6, !noundef !7
  %16 = trunc i8 %15 to i1
  br i1 %16, label %105, label %17

17:                                               ; preds = %0
  call void @llvm.lifetime.start.p0(i64 8, ptr %3) #10
  call void @llvm.lifetime.start.p0(i64 8, ptr %4) #10
  call void @llvm.lifetime.start.p0(i64 8, ptr %5) #10
  %18 = load ptr, ptr @pgStatLocal, align 8
  store ptr %18, ptr %5, align 8
  call void @llvm.lifetime.start.p0(i64 8, ptr %6) #10
  %19 = load ptr, ptr %5, align 8
  store ptr %19, ptr %6, align 8
  %20 = load ptr, ptr %6, align 8
  %21 = getelementptr inbounds nuw i8, ptr %20, i64 51504
  store ptr %21, ptr %6, align 8
  %22 = load ptr, ptr %6, align 8
  %23 = load ptr, ptr %5, align 8
  %24 = getelementptr inbounds nuw %struct.PgStat_ShmemControl, ptr %23, i32 0, i32 0
  store ptr %22, ptr %24, align 8
  %25 = call i64 @pgstat_dsa_init_size()
  %26 = add i64 %25, 7
  %27 = and i64 %26, -8
  %28 = load ptr, ptr %6, align 8
  %29 = getelementptr inbounds nuw i8, ptr %28, i64 %27
  store ptr %29, ptr %6, align 8
  %30 = load ptr, ptr %5, align 8
  %31 = getelementptr inbounds nuw %struct.PgStat_ShmemControl, ptr %30, i32 0, i32 0
  %32 = load ptr, ptr %31, align 8
  %33 = call i64 @pgstat_dsa_init_size()
  %34 = call ptr @dsa_create_in_place_ext(ptr noundef %32, i64 noundef %33, i32 noundef 77, ptr noundef null, i64 noundef 1048576, i64 noundef 1099511627776)
  store ptr %34, ptr %3, align 8
  %35 = load ptr, ptr %3, align 8
  call void @dsa_pin(ptr noundef %35)
  %36 = load ptr, ptr %3, align 8
  %37 = call i64 @pgstat_dsa_init_size()
  call void @dsa_set_size_limit(ptr noundef %36, i64 noundef %37)
  %38 = load ptr, ptr %3, align 8
  %39 = call ptr @dshash_create(ptr noundef %38, ptr noundef @dsh_params, ptr noundef null)
  store ptr %39, ptr %4, align 8
  %40 = load ptr, ptr %4, align 8
  %41 = call i64 @dshash_get_hash_table_handle(ptr noundef %40)
  %42 = load ptr, ptr %5, align 8
  %43 = getelementptr inbounds nuw %struct.PgStat_ShmemControl, ptr %42, i32 0, i32 1
  store i64 %41, ptr %43, align 8
  %44 = load ptr, ptr %3, align 8
  call void @dsa_set_size_limit(ptr noundef %44, i64 noundef -1)
  %45 = load ptr, ptr %4, align 8
  call void @dshash_detach(ptr noundef %45)
  %46 = load ptr, ptr %3, align 8
  call void @dsa_detach(ptr noundef %46)
  %47 = load ptr, ptr %5, align 8
  %48 = getelementptr inbounds nuw %struct.PgStat_ShmemControl, ptr %47, i32 0, i32 3
  call void @pg_atomic_init_u64(ptr noundef %48, i64 noundef 1)
  call void @llvm.lifetime.start.p0(i64 4, ptr %7) #10
  store i32 1, ptr %7, align 4
  br label %49

49:                                               ; preds = %101, %17
  %50 = load i32, ptr %7, align 4
  %51 = icmp ule i32 %50, 256
  br i1 %51, label %53, label %52

52:                                               ; preds = %49
  store i32 2, ptr %8, align 4
  call void @llvm.lifetime.end.p0(i64 4, ptr %7) #10
  br label %104

53:                                               ; preds = %49
  call void @llvm.lifetime.start.p0(i64 8, ptr %9) #10
  %54 = load i32, ptr %7, align 4
  %55 = call ptr @pgstat_get_kind_info(i32 noundef %54)
  store ptr %55, ptr %9, align 8
  call void @llvm.lifetime.start.p0(i64 8, ptr %10) #10
  %56 = load ptr, ptr %9, align 8
  %57 = icmp ne ptr %56, null
  br i1 %57, label %58, label %63

58:                                               ; preds = %53
  %59 = load ptr, ptr %9, align 8
  %60 = load i8, ptr %59, align 8
  %61 = and i8 %60, 1
  %62 = trunc i8 %61 to i1
  br i1 %62, label %64, label %63

63:                                               ; preds = %58, %53
  store i32 4, ptr %8, align 4
  br label %98

64:                                               ; preds = %58
  %65 = load i32, ptr %7, align 4
  %66 = call zeroext i1 @pgstat_is_kind_builtin(i32 noundef %65)
  br i1 %66, label %67, label %74

67:                                               ; preds = %64
  %68 = load ptr, ptr %5, align 8
  %69 = load ptr, ptr %9, align 8
  %70 = getelementptr inbounds nuw %struct.PgStat_KindInfo, ptr %69, i32 0, i32 3
  %71 = load i32, ptr %70, align 4
  %72 = zext i32 %71 to i64
  %73 = getelementptr inbounds nuw i8, ptr %68, i64 %72
  store ptr %73, ptr %10, align 8
  br label %93

74:                                               ; preds = %64
  call void @llvm.lifetime.start.p0(i64 4, ptr %11) #10
  %75 = load i32, ptr %7, align 4
  %76 = sub i32 %75, 128
  store i32 %76, ptr %11, align 4
  %77 = load ptr, ptr %9, align 8
  %78 = getelementptr inbounds nuw %struct.PgStat_KindInfo, ptr %77, i32 0, i32 1
  %79 = load i32, ptr %78, align 4
  %80 = zext i32 %79 to i64
  %81 = call ptr @ShmemAlloc(i64 noundef %80)
  %82 = load ptr, ptr %5, align 8
  %83 = getelementptr inbounds nuw %struct.PgStat_ShmemControl, ptr %82, i32 0, i32 10
  %84 = load i32, ptr %11, align 4
  %85 = sext i32 %84 to i64
  %86 = getelementptr inbounds [129 x ptr], ptr %83, i64 0, i64 %85
  store ptr %81, ptr %86, align 8
  %87 = load ptr, ptr %5, align 8
  %88 = getelementptr inbounds nuw %struct.PgStat_ShmemControl, ptr %87, i32 0, i32 10
  %89 = load i32, ptr %11, align 4
  %90 = sext i32 %89 to i64
  %91 = getelementptr inbounds [129 x ptr], ptr %88, i64 0, i64 %90
  %92 = load ptr, ptr %91, align 8
  store ptr %92, ptr %10, align 8
  call void @llvm.lifetime.end.p0(i64 4, ptr %11) #10
  br label %93

93:                                               ; preds = %74, %67
  %94 = load ptr, ptr %9, align 8
  %95 = getelementptr inbounds nuw %struct.PgStat_KindInfo, ptr %94, i32 0, i32 13
  %96 = load ptr, ptr %95, align 8
  %97 = load ptr, ptr %10, align 8
  call void %96(ptr noundef %97)
  store i32 0, ptr %8, align 4
  br label %98

98:                                               ; preds = %93, %63
  call void @llvm.lifetime.end.p0(i64 8, ptr %10) #10
  call void @llvm.lifetime.end.p0(i64 8, ptr %9) #10
  %99 = load i32, ptr %8, align 4
  switch i32 %99, label %107 [
    i32 0, label %100
    i32 4, label %101
  ]

100:                                              ; preds = %98
  br label %101

101:                                              ; preds = %100, %98
  %102 = load i32, ptr %7, align 4
  %103 = add i32 %102, 1
  store i32 %103, ptr %7, align 4
  br label %49, !llvm.loop !8

104:                                              ; preds = %52
  call void @llvm.lifetime.end.p0(i64 8, ptr %6) #10
  call void @llvm.lifetime.end.p0(i64 8, ptr %5) #10
  call void @llvm.lifetime.end.p0(i64 8, ptr %4) #10
  call void @llvm.lifetime.end.p0(i64 8, ptr %3) #10
  br label %106

105:                                              ; preds = %0
  br label %106

106:                                              ; preds = %105, %104
  call void @llvm.lifetime.end.p0(i64 8, ptr %2) #10
  call void @llvm.lifetime.end.p0(i64 1, ptr %1) #10
  ret void

107:                                              ; preds = %98
  unreachable
}