; Function Attrs: nounwind uwtable
define dso_local void @StatsShmemInit() local_unnamed_addr #0 {
  %1 = alloca i8, align 1
  call void @llvm.lifetime.start.p0(i64 1, ptr nonnull %1) #15
  %2 = tail call i64 @add_size(i64 noundef 51504, i64 noundef 262144) #15
  br label %3

3:                                                ; preds = %15, %0
  %.011.i = phi i64 [ %2, %0 ], [ %.1.i, %15 ]
  %.0810.i = phi i32 [ 128, %0 ], [ %16, %15 ]
  %4 = tail call ptr @pgstat_get_kind_info(i32 noundef %.0810.i) #15
  %.not.i = icmp eq ptr %4, null
  br i1 %.not.i, label %15, label %5

5:                                                ; preds = %3
  %6 = load i8, ptr %4, align 8
  %7 = trunc i8 %6 to i1
  br i1 %7, label %8, label %15

8:                                                ; preds = %5
  %9 = getelementptr inbounds nuw i8, ptr %4, i64 4
  %10 = load i32, ptr %9, align 4
  %11 = zext i32 %10 to i64
  %12 = add nuw nsw i64 %11, 7
  %13 = and i64 %12, 8589934584
  %14 = add i64 %13, %.011.i
  br label %15

15:                                               ; preds = %8, %5, %3
  %.1.i = phi i64 [ %14, %8 ], [ %.011.i, %3 ], [ %.011.i, %5 ]
  %16 = add nuw nsw i32 %.0810.i, 1
  %exitcond.not.i = icmp eq i32 %16, 257
  br i1 %exitcond.not.i, label %StatsShmemSize.exit, label %3, !llvm.loop !4

StatsShmemSize.exit:                              ; preds = %15
  %17 = call ptr @ShmemInitStruct(ptr noundef nonnull @.str, i64 noundef %.1.i, ptr noundef nonnull %1) #15
  store ptr %17, ptr @pgStatLocal, align 8
  %18 = load i8, ptr @IsUnderPostmaster, align 1, !range !6, !noundef !7
  %19 = trunc nuw i8 %18 to i1
  br i1 %19, label %.loopexit, label %20

20:                                               ; preds = %StatsShmemSize.exit
  %21 = getelementptr inbounds nuw i8, ptr %17, i64 51504
  store ptr %21, ptr %17, align 8
  %22 = call ptr @dsa_create_in_place_ext(ptr noundef nonnull %21, i64 noundef 262144, i32 noundef 77, ptr noundef null, i64 noundef 1048576, i64 noundef 1099511627776) #15
  call void @dsa_pin(ptr noundef %22) #15
  call void @dsa_set_size_limit(ptr noundef %22, i64 noundef 262144) #15
  %23 = call ptr @dshash_create(ptr noundef %22, ptr noundef nonnull @dsh_params, ptr noundef null) #15
  %24 = call i64 @dshash_get_hash_table_handle(ptr noundef %23) #15
  %25 = getelementptr inbounds nuw i8, ptr %17, i64 8
  store i64 %24, ptr %25, align 8
  call void @dsa_set_size_limit(ptr noundef %22, i64 noundef -1) #15
  call void @dshash_detach(ptr noundef %23) #15
  call void @dsa_detach(ptr noundef %22) #15
  %26 = getelementptr inbounds nuw i8, ptr %17, i64 24
  store volatile i64 1, ptr %26, align 8
  %27 = getelementptr inbounds nuw i8, ptr %17, i64 50472
  br label %28

28:                                               ; preds = %20, %51
  %indvars.iv = phi i64 [ 1, %20 ], [ %indvars.iv.next, %51 ]
  %29 = trunc nuw nsw i64 %indvars.iv to i32
  %30 = call ptr @pgstat_get_kind_info(i32 noundef %29) #15
  %.not = icmp eq ptr %30, null
  br i1 %.not, label %51, label %31

31:                                               ; preds = %28
  %32 = load i8, ptr %30, align 8
  %33 = trunc i8 %32 to i1
  br i1 %33, label %34, label %51

34:                                               ; preds = %31
  %35 = icmp samesign ult i64 %indvars.iv, 13
  br i1 %35, label %36, label %41

36:                                               ; preds = %34
  %37 = getelementptr inbounds nuw i8, ptr %30, i64 12
  %38 = load i32, ptr %37, align 4
  %39 = zext i32 %38 to i64
  %40 = getelementptr inbounds nuw i8, ptr %17, i64 %39
  br label %48

41:                                               ; preds = %34
  %42 = add nsw i64 %indvars.iv, -128
  %43 = getelementptr inbounds nuw i8, ptr %30, i64 4
  %44 = load i32, ptr %43, align 4
  %45 = zext i32 %44 to i64
  %46 = call ptr @ShmemAlloc(i64 noundef %45) #15
  %47 = getelementptr inbounds [129 x ptr], ptr %27, i64 0, i64 %42
  store ptr %46, ptr %47, align 8
  br label %48

48:                                               ; preds = %41, %36
  %.031 = phi ptr [ %40, %36 ], [ %46, %41 ]
  %49 = getelementptr inbounds nuw i8, ptr %30, i64 80
  %50 = load ptr, ptr %49, align 8
  call void %50(ptr noundef %.031) #15
  br label %51

51:                                               ; preds = %28, %31, %48
  %indvars.iv.next = add nuw nsw i64 %indvars.iv, 1
  %exitcond.not = icmp eq i64 %indvars.iv.next, 257
  br i1 %exitcond.not, label %.loopexit, label %28, !llvm.loop !8

.loopexit:                                        ; preds = %51, %StatsShmemSize.exit
  call void @llvm.lifetime.end.p0(i64 1, ptr nonnull %1) #15
  ret void
}